ccopy_reg
_reconstructor
p0
(cgoogle.oauth2.credentials
Credentials
p1
c__builtin__
object
p2
Ntp3
Rp4
(dp5
S'_token_uri'
p6
Vhttps://oauth2.googleapis.com/token
p7
sS'_client_secret'
p8
VCgEAbkK_c5U4a4xIK2rFTB_b
p9
sS'_id_token'
p10
NsS'token'
p11
Vya29.Il-pB0uroqgpr6JxpJaqhAN2vYH9HcujNl2cJmzz-wwbTQQjEX9BqjbowL19p04MwBTlQnQkF_ZF5rmAS3DTZWC2Rp4JwExlK8aAzczsAYH9MkY0Xn8W0iw2qxtinwK2Ng
p12
sS'_refresh_token'
p13
V1//06iWbq9yvVwaqCgYIARAAGAYSNwF-L9IrERZHtmkTGbuLsAtjyMlVXnOd5SsyPdXvk0GBuwJnZmBvPPUqtTAxrb8BENHX_ghIbnk
p14
sS'_scopes'
p15
(lp16
S'https://www.googleapis.com/auth/calendar.readonly'
p17
asS'_client_id'
p18
V90970297514-feheod24rd7rtvls49di66vvqk7p4r17.apps.googleusercontent.com
p19
sS'expiry'
p20
cdatetime
datetime
p21
(S'\x07\xe3\n\x1d\x079;\x07\xb0\xc0'
p22
tp23
Rp24
sb.